target datalayout = "e-m:e-p270:32:32-p271:32:32-p272:64:64-i64:64-i128:128-f80:128-n8:16:32:64-S128"
target triple = "x86_64-pc-linux-gnu"

%struct.lean_object = type { i32, i32 }
%struct.lean_closure_object = type { %struct.lean_object, ptr, i16, i16, [0 x ptr] }

@l_Lean_Elab_Tactic_NormCast_initFn____x40_Lean_Elab_Tactic_NormCast___hyg_5____closed__3 = internal global ptr null, align 8
@l_Lean_Elab_Tactic_NormCast_proveEqUsingDown___lambda__1___closed__1 = internal global ptr null, align 8
@l_Lean_Elab_Tactic_NormCast_prove___closed__1 = internal global ptr null, align 8

; Function Attrs: inlinehint nounwind uwtable
define internal i64 @lean_align(i64 noundef %0, i64 noundef %1) #0 {
  %3 = alloca i64, align 8
  %4 = alloca i64, align 8
  store i64 %0, ptr %3, align 8, !tbaa !10
  store i64 %1, ptr %4, align 8, !tbaa !10
  %5 = load i64, ptr %3, align 8, !tbaa !10
  %6 = load i64, ptr %4, align 8, !tbaa !10
  %7 = udiv i64 %5, %6
  %8 = load i64, ptr %4, align 8, !tbaa !10
  %9 = mul i64 %7, %8
  %10 = load i64, ptr %4, align 8, !tbaa !10
  %11 = load i64, ptr %3, align 8, !tbaa !10
  %12 = load i64, ptr %4, align 8, !tbaa !10
  %13 = urem i64 %11, %12
  %14 = icmp ne i64 %13, 0
  %15 = zext i1 %14 to i32
  %16 = sext i32 %15 to i64
  %17 = mul i64 %10, %16
  %18 = add i64 %9, %17
  ret i64 %18
}

; Function Attrs: inlinehint nounwind uwtable
define internal zeroext i1 @lean_is_st(ptr noundef %0) #0 {
  %2 = alloca ptr, align 8
  store ptr %0, ptr %2, align 8, !tbaa !4
  %3 = load ptr, ptr %2, align 8, !tbaa !4
  %4 = getelementptr inbounds nuw %struct.lean_object, ptr %3, i32 0, i32 0
  %5 = load i32, ptr %4, align 4, !tbaa !15
  %6 = icmp sgt i32 %5, 0
  ret i1 %6
}

; Function Attrs: inlinehint nounwind uwtable
define internal ptr @lean_to_closure(ptr noundef %0) #0 {
  %2 = alloca ptr, align 8
  store ptr %0, ptr %2, align 8, !tbaa !4
  %3 = load ptr, ptr %2, align 8, !tbaa !4
  ret ptr %3
}

; Function Attrs: inlinehint nounwind uwtable
define internal void @lean_set_st_header(ptr noundef %0, i32 noundef %1, i32 noundef %2) #0 {
  %4 = alloca ptr, align 8
  %5 = alloca i32, align 4
  %6 = alloca i32, align 4
  store ptr %0, ptr %4, align 8, !tbaa !4
  store i32 %1, ptr %5, align 4, !tbaa !13
  store i32 %2, ptr %6, align 4, !tbaa !13
  %7 = load ptr, ptr %4, align 8, !tbaa !4
  %8 = getelementptr inbounds nuw %struct.lean_object, ptr %7, i32 0, i32 0
  store i32 1, ptr %8, align 4, !tbaa !15
  %9 = load i32, ptr %5, align 4, !tbaa !13
  %10 = load ptr, ptr %4, align 8, !tbaa !4
  %11 = getelementptr inbounds nuw %struct.lean_object, ptr %10, i32 0, i32 1
  %12 = load i32, ptr %11, align 4
  %13 = and i32 %9, 255
  %14 = shl i32 %13, 24
  %15 = and i32 %12, 16777215
  %16 = or i32 %15, %14
  store i32 %16, ptr %11, align 4
  %17 = load i32, ptr %6, align 4, !tbaa !13
  %18 = load ptr, ptr %4, align 8, !tbaa !4
  %19 = getelementptr inbounds nuw %struct.lean_object, ptr %18, i32 0, i32 1
  %20 = load i32, ptr %19, align 4
  %21 = and i32 %17, 255
  %22 = shl i32 %21, 16
  %23 = and i32 %20, -16711681
  %24 = or i32 %23, %22
  store i32 %24, ptr %19, align 4
  ret void
}

; Function Attrs: inlinehint nounwind uwtable
define internal ptr @lean_alloc_small_object(i32 noundef %0) #0 {
  %2 = alloca i32, align 4
  %3 = alloca ptr, align 8
  %4 = alloca ptr, align 8
  store i32 %0, ptr %2, align 4, !tbaa !13
  call void @lean_inc_heartbeat()
  %5 = load i32, ptr %2, align 4, !tbaa !13
  %6 = zext i32 %5 to i64
  %7 = call i64 @lean_align(i64 noundef %6, i64 noundef 8)
  %8 = trunc i64 %7 to i32
  store i32 %8, ptr %2, align 4, !tbaa !13
  call void @llvm.lifetime.start.p0(i64 8, ptr %3) #8
  %9 = load i32, ptr %2, align 4, !tbaa !13
  %10 = zext i32 %9 to i64
  %11 = call noalias ptr @mi_malloc_small(i64 noundef %10)
  store ptr %11, ptr %3, align 8, !tbaa !4
  %12 = load ptr, ptr %3, align 8, !tbaa !4
  %13 = icmp eq ptr %12, null
  br i1 %13, label %14, label %15

14:                                               ; preds = %1
  call void @lean_internal_panic_out_of_memory() #7
  unreachable

15:                                               ; preds = %1
  call void @llvm.lifetime.start.p0(i64 8, ptr %4) #8
  %16 = load ptr, ptr %3, align 8, !tbaa !4
  store ptr %16, ptr %4, align 8, !tbaa !4
  %17 = load i32, ptr %2, align 4, !tbaa !13
  %18 = load ptr, ptr %4, align 8, !tbaa !4
  %19 = getelementptr inbounds nuw %struct.lean_object, ptr %18, i32 0, i32 1
  %20 = load i32, ptr %19, align 4
  %21 = and i32 %17, 65535
  %22 = and i32 %20, -65536
  %23 = or i32 %22, %21
  store i32 %23, ptr %19, align 4
  %24 = load ptr, ptr %4, align 8, !tbaa !4
  call void @llvm.lifetime.end.p0(i64 8, ptr %4) #8
  call void @llvm.lifetime.end.p0(i64 8, ptr %3) #8
  ret ptr %24
}

; Function Attrs: inlinehint nounwind uwtable
define internal void @lean_inc_ref(ptr noundef %0) #0 {
  %2 = alloca ptr, align 8
  store ptr %0, ptr %2, align 8, !tbaa !4
  %3 = load ptr, ptr %2, align 8, !tbaa !4
  %4 = call zeroext i1 @lean_is_st(ptr noundef %3)
  %5 = zext i1 %4 to i64
  %6 = call i64 @llvm.expect.i64(i64 %5, i64 1)
  %7 = icmp ne i64 %6, 0
  br i1 %7, label %8, label %13

8:                                                ; preds = %1
  %9 = load ptr, ptr %2, align 8, !tbaa !4
  %10 = getelementptr inbounds nuw %struct.lean_object, ptr %9, i32 0, i32 0
  %11 = load i32, ptr %10, align 4, !tbaa !15
  %12 = add i32 %11, 1
  store i32 %12, ptr %10, align 4, !tbaa !15
  br label %21

13:                                               ; preds = %1
  %14 = load ptr, ptr %2, align 8, !tbaa !4
  %15 = getelementptr inbounds nuw %struct.lean_object, ptr %14, i32 0, i32 0
  %16 = load i32, ptr %15, align 4, !tbaa !15
  %17 = icmp ne i32 %16, 0
  br i1 %17, label %18, label %20

18:                                               ; preds = %13
  %19 = load ptr, ptr %2, align 8, !tbaa !4
  call void @lean_inc_ref_cold(ptr noundef %19)
  br label %20

20:                                               ; preds = %18, %13
  br label %21

21:                                               ; preds = %20, %8
  ret void
}

; Function Attrs: alwaysinline nounwind uwtable
define internal zeroext i1 @lean_is_scalar(ptr noundef %0) #1 {
  %2 = alloca ptr, align 8
  store ptr %0, ptr %2, align 8, !tbaa !4
  %3 = load ptr, ptr %2, align 8, !tbaa !4
  %4 = ptrtoint ptr %3 to i64
  %5 = and i64 %4, 1
  %6 = icmp eq i64 %5, 1
  ret i1 %6
}

; Function Attrs: inlinehint nounwind uwtable
define internal void @lean_closure_set(ptr noundef %0, i32 noundef %1, ptr noundef %2) #0 {
  %4 = alloca ptr, align 8
  %5 = alloca i32, align 4
  %6 = alloca ptr, align 8
  store ptr %0, ptr %4, align 8, !tbaa !4
  store i32 %1, ptr %5, align 4, !tbaa !13
  store ptr %2, ptr %6, align 8, !tbaa !4
  %7 = load ptr, ptr %6, align 8, !tbaa !4
  %8 = load ptr, ptr %4, align 8, !tbaa !4
  %9 = call ptr @lean_to_closure(ptr noundef %8)
  %10 = getelementptr inbounds nuw %struct.lean_closure_object, ptr %9, i32 0, i32 4
  %11 = load i32, ptr %5, align 4, !tbaa !13
  %12 = zext i32 %11 to i64
  %13 = getelementptr inbounds nuw [0 x ptr], ptr %10, i64 0, i64 %12
  store ptr %7, ptr %13, align 8, !tbaa !4
  ret void
}

; Function Attrs: inlinehint nounwind uwtable
define internal ptr @lean_alloc_closure(ptr noundef %0, i32 noundef %1, i32 noundef %2) #0 {
  %4 = alloca ptr, align 8
  %5 = alloca i32, align 4
  %6 = alloca i32, align 4
  %7 = alloca ptr, align 8
  store ptr %0, ptr %4, align 8, !tbaa !4
  store i32 %1, ptr %5, align 4, !tbaa !13
  store i32 %2, ptr %6, align 4, !tbaa !13
  call void @llvm.lifetime.start.p0(i64 8, ptr %7) #8
  %8 = load i32, ptr %6, align 4, !tbaa !13
  %9 = zext i32 %8 to i64
  %10 = mul i64 8, %9
  %11 = add i64 24, %10
  %12 = trunc i64 %11 to i32
  %13 = call ptr @lean_alloc_small_object(i32 noundef %12)
  store ptr %13, ptr %7, align 8, !tbaa !4
  %14 = load ptr, ptr %7, align 8, !tbaa !4
  call void @lean_set_st_header(ptr noundef %14, i32 noundef 245, i32 noundef 0)
  %15 = load ptr, ptr %4, align 8, !tbaa !4
  %16 = load ptr, ptr %7, align 8, !tbaa !4
  %17 = getelementptr inbounds nuw %struct.lean_closure_object, ptr %16, i32 0, i32 1
  store ptr %15, ptr %17, align 8, !tbaa !4
  %18 = load i32, ptr %5, align 4, !tbaa !13
  %19 = trunc i32 %18 to i16
  %20 = load ptr, ptr %7, align 8, !tbaa !4
  %21 = getelementptr inbounds nuw %struct.lean_closure_object, ptr %20, i32 0, i32 2
  store i16 %19, ptr %21, align 8, !tbaa !19
  %22 = load i32, ptr %6, align 4, !tbaa !13
  %23 = trunc i32 %22 to i16
  %24 = load ptr, ptr %7, align 8, !tbaa !4
  %25 = getelementptr inbounds nuw %struct.lean_closure_object, ptr %24, i32 0, i32 3
  store i16 %23, ptr %25, align 2, !tbaa !19
  %26 = load ptr, ptr %7, align 8, !tbaa !4
  call void @llvm.lifetime.end.p0(i64 8, ptr %7) #8
  ret ptr %26
}

; Function Attrs: alwaysinline nounwind uwtable
define internal void @lean_inc(ptr noundef %0) #1 {
  %2 = alloca ptr, align 8
  store ptr %0, ptr %2, align 8, !tbaa !4
  %3 = load ptr, ptr %2, align 8, !tbaa !4
  %4 = call zeroext i1 @lean_is_scalar(ptr noundef %3)
  br i1 %4, label %7, label %5

5:                                                ; preds = %1
  %6 = load ptr, ptr %2, align 8, !tbaa !4
  call void @lean_inc_ref(ptr noundef %6)
  br label %7

7:                                                ; preds = %5, %1
  ret void
}

; Function Attrs: nounwind uwtable
define ptr @l_Lean_Elab_Tactic_NormCast_prove(ptr noundef %0, ptr noundef %1, ptr noundef %2, ptr noundef %3, ptr noundef %4, ptr noundef %5, ptr noundef %6, ptr noundef %7, ptr noundef %8) #2 {
  %10 = alloca ptr, align 8
  %11 = alloca ptr, align 8
  %12 = alloca ptr, align 8
  %13 = alloca ptr, align 8
  %14 = alloca ptr, align 8
  %15 = alloca ptr, align 8
  %16 = alloca ptr, align 8
  %17 = alloca ptr, align 8
  %18 = alloca ptr, align 8
  %19 = alloca ptr, align 8
  %20 = alloca ptr, align 8
  %21 = alloca ptr, align 8
  %22 = alloca ptr, align 8
  %23 = alloca ptr, align 8
  %24 = alloca i8, align 1
  %25 = alloca ptr, align 8
  %26 = alloca ptr, align 8
  store ptr %0, ptr %10, align 8, !tbaa !4
  store ptr %1, ptr %11, align 8, !tbaa !4
  store ptr %2, ptr %12, align 8, !tbaa !4
  store ptr %3, ptr %13, align 8, !tbaa !4
  store ptr %4, ptr %14, align 8, !tbaa !4
  store ptr %5, ptr %15, align 8, !tbaa !4
  store ptr %6, ptr %16, align 8, !tbaa !4
  store ptr %7, ptr %17, align 8, !tbaa !4
  store ptr %8, ptr %18, align 8, !tbaa !4
  br label %27

27:                                               ; preds = %9
  call void @llvm.lifetime.start.p0(i64 8, ptr %19) #8
  call void @llvm.lifetime.start.p0(i64 8, ptr %20) #8
  call void @llvm.lifetime.start.p0(i64 8, ptr %21) #8
  call void @llvm.lifetime.start.p0(i64 8, ptr %22) #8
  call void @llvm.lifetime.start.p0(i64 8, ptr %23) #8
  call void @llvm.lifetime.start.p0(i64 1, ptr %24) #8
  call void @llvm.lifetime.start.p0(i64 8, ptr %25) #8
  call void @llvm.lifetime.start.p0(i64 8, ptr %26) #8
  %28 = load ptr, ptr %10, align 8, !tbaa !4
  call void @lean_inc(ptr noundef %28)
  %29 = call ptr @lean_alloc_closure(ptr noundef @l_Lean_Elab_Tactic_NormCast_prove___lambda__1___boxed, i32 noundef 10, i32 noundef 1)
  store ptr %29, ptr %19, align 8, !tbaa !4
  %30 = load ptr, ptr %19, align 8, !tbaa !4
  %31 = load ptr, ptr %10, align 8, !tbaa !4
  call void @lean_closure_set(ptr noundef %30, i32 noundef 0, ptr noundef %31)
  %32 = call ptr @lean_alloc_closure(ptr noundef @l_Lean_Elab_Tactic_NormCast_prove___lambda__2___boxed, i32 noundef 9, i32 noundef 1)
  store ptr %32, ptr %20, align 8, !tbaa !4
  %33 = load ptr, ptr %20, align 8, !tbaa !4
  %34 = load ptr, ptr %10, align 8, !tbaa !4
  call void @lean_closure_set(ptr noundef %33, i32 noundef 0, ptr noundef %34)
  %35 = load ptr, ptr @l_Lean_Elab_Tactic_NormCast_prove___closed__1, align 8, !tbaa !4
  store ptr %35, ptr %21, align 8, !tbaa !4
  %36 = call ptr @lean_alloc_closure(ptr noundef @l_ReaderT_bind___at_Lean_Meta_Simp_discharge_x3f_x27___spec__2___rarg, i32 noundef 10, i32 noundef 2)
  store ptr %36, ptr %22, align 8, !tbaa !4
  %37 = load ptr, ptr %22, align 8, !tbaa !4
  %38 = load ptr, ptr %20, align 8, !tbaa !4
  call void @lean_closure_set(ptr noundef %37, i32 noundef 0, ptr noundef %38)
  %39 = load ptr, ptr %22, align 8, !tbaa !4
  %40 = load ptr, ptr %21, align 8, !tbaa !4
  call void @lean_closure_set(ptr noundef %39, i32 noundef 1, ptr noundef %40)
  %41 = load ptr, ptr @l_Lean_Elab_Tactic_NormCast_initFn____x40_Lean_Elab_Tactic_NormCast___hyg_5____closed__3, align 8, !tbaa !4
  store ptr %41, ptr %23, align 8, !tbaa !4
  store i8 1, ptr %24, align 1, !tbaa !12
  %42 = load ptr, ptr @l_Lean_Elab_Tactic_NormCast_proveEqUsingDown___lambda__1___closed__1, align 8, !tbaa !4
  store ptr %42, ptr %25, align 8, !tbaa !4
  %43 = load ptr, ptr %23, align 8, !tbaa !4
  %44 = load ptr, ptr %19, align 8, !tbaa !4
  %45 = load ptr, ptr %22, align 8, !tbaa !4
  %46 = load i8, ptr %24, align 1, !tbaa !12
  %47 = load ptr, ptr %25, align 8, !tbaa !4
  %48 = load ptr, ptr %11, align 8, !tbaa !4
  %49 = load ptr, ptr %12, align 8, !tbaa !4
  %50 = load ptr, ptr %13, align 8, !tbaa !4
  %51 = load ptr, ptr %14, align 8, !tbaa !4
  %52 = load ptr, ptr %15, align 8, !tbaa !4
  %53 = load ptr, ptr %16, align 8, !tbaa !4
  %54 = load ptr, ptr %17, align 8, !tbaa !4
  %55 = load ptr, ptr %18, align 8, !tbaa !4
  %56 = call ptr @l_Lean_withTraceNode___at_Lean_Elab_Tactic_NormCast_prove___spec__1(ptr noundef %43, ptr noundef %44, ptr noundef %45, i8 noundef zeroext %46, ptr noundef %47, ptr noundef %48, ptr noundef %49, ptr noundef %50, ptr noundef %51, ptr noundef %52, ptr noundef %53, ptr noundef %54, ptr noundef %55)
  store ptr %56, ptr %26, align 8, !tbaa !4
  %57 = load ptr, ptr %26, align 8, !tbaa !4
  call void @llvm.lifetime.end.p0(i64 8, ptr %26) #8
  call void @llvm.lifetime.end.p0(i64 8, ptr %25) #8
  call void @llvm.lifetime.end.p0(i64 1, ptr %24) #8
  call void @llvm.lifetime.end.p0(i64 8, ptr %23) #8
  call void @llvm.lifetime.end.p0(i64 8, ptr %22) #8
  call void @llvm.lifetime.end.p0(i64 8, ptr %21) #8
  call void @llvm.lifetime.end.p0(i64 8, ptr %20) #8
  call void @llvm.lifetime.end.p0(i64 8, ptr %19) #8
  ret ptr %57
}